target datalayout = "e-m:e-p270:32:32-p271:32:32-p272:64:64-i64:64-i128:128-f80:128-n8:16:32:64-S128"
target triple = "x86_64-pc-linux-gnu"

%struct.curl_mimepart = type { ptr, ptr, i32, i32, ptr, ptr, ptr, ptr, ptr, ptr, ptr, ptr, ptr, ptr, ptr, i64, %struct.mime_state, ptr, %struct.mime_encoder_state, i64 }
%struct.mime_state = type { i32, ptr, i64 }
%struct.mime_encoder_state = type { i64, i64, i64, [256 x i8] }
%struct.curl_mime = type { ptr, ptr, ptr, [47 x i8], %struct.mime_state }

; Function Attrs: nounwind uwtable
define internal void @cleanup_encoder_state(ptr noundef %0) #0 {
  %2 = alloca ptr, align 8
  store ptr %0, ptr %2, align 8, !tbaa !107
  %3 = load ptr, ptr %2, align 8, !tbaa !107
  %4 = getelementptr inbounds nuw %struct.mime_encoder_state, ptr %3, i32 0, i32 0
  store i64 0, ptr %4, align 8, !tbaa !109
  %5 = load ptr, ptr %2, align 8, !tbaa !107
  %6 = getelementptr inbounds nuw %struct.mime_encoder_state, ptr %5, i32 0, i32 1
  store i64 0, ptr %6, align 8, !tbaa !110
  %7 = load ptr, ptr %2, align 8, !tbaa !107
  %8 = getelementptr inbounds nuw %struct.mime_encoder_state, ptr %7, i32 0, i32 2
  store i64 0, ptr %8, align 8, !tbaa !111
  ret void
}

; Function Attrs: nounwind uwtable
define internal void @cleanup_part_content(ptr noundef %0) #0 {
  %2 = alloca ptr, align 8
  store ptr %0, ptr %2, align 8, !tbaa !4
  %3 = load ptr, ptr %2, align 8, !tbaa !4
  %4 = getelementptr inbounds nuw %struct.curl_mimepart, ptr %3, i32 0, i32 7
  %5 = load ptr, ptr %4, align 8, !tbaa !26
  %6 = icmp ne ptr %5, null
  br i1 %6, label %7, label %14

7:                                                ; preds = %1
  %8 = load ptr, ptr %2, align 8, !tbaa !4
  %9 = getelementptr inbounds nuw %struct.curl_mimepart, ptr %8, i32 0, i32 7
  %10 = load ptr, ptr %9, align 8, !tbaa !26
  %11 = load ptr, ptr %2, align 8, !tbaa !4
  %12 = getelementptr inbounds nuw %struct.curl_mimepart, ptr %11, i32 0, i32 8
  %13 = load ptr, ptr %12, align 8, !tbaa !27
  call void %10(ptr noundef %13)
  br label %14

14:                                               ; preds = %7, %1
  %15 = load ptr, ptr %2, align 8, !tbaa !4
  %16 = getelementptr inbounds nuw %struct.curl_mimepart, ptr %15, i32 0, i32 5
  store ptr null, ptr %16, align 8, !tbaa !28
  %17 = load ptr, ptr %2, align 8, !tbaa !4
  %18 = getelementptr inbounds nuw %struct.curl_mimepart, ptr %17, i32 0, i32 6
  store ptr null, ptr %18, align 8, !tbaa !29
  %19 = load ptr, ptr %2, align 8, !tbaa !4
  %20 = getelementptr inbounds nuw %struct.curl_mimepart, ptr %19, i32 0, i32 7
  store ptr null, ptr %20, align 8, !tbaa !26
  %21 = load ptr, ptr %2, align 8, !tbaa !4
  %22 = load ptr, ptr %2, align 8, !tbaa !4
  %23 = getelementptr inbounds nuw %struct.curl_mimepart, ptr %22, i32 0, i32 8
  store ptr %21, ptr %23, align 8, !tbaa !27
  %24 = load ptr, ptr %2, align 8, !tbaa !4
  %25 = getelementptr inbounds nuw %struct.curl_mimepart, ptr %24, i32 0, i32 4
  store ptr null, ptr %25, align 8, !tbaa !30
  %26 = load ptr, ptr %2, align 8, !tbaa !4
  %27 = getelementptr inbounds nuw %struct.curl_mimepart, ptr %26, i32 0, i32 9
  store ptr null, ptr %27, align 8, !tbaa !31
  %28 = load ptr, ptr %2, align 8, !tbaa !4
  %29 = getelementptr inbounds nuw %struct.curl_mimepart, ptr %28, i32 0, i32 15
  store i64 0, ptr %29, align 8, !tbaa !32
  %30 = load ptr, ptr %2, align 8, !tbaa !4
  %31 = getelementptr inbounds nuw %struct.curl_mimepart, ptr %30, i32 0, i32 18
  call void @cleanup_encoder_state(ptr noundef %31)
  %32 = load ptr, ptr %2, align 8, !tbaa !4
  %33 = getelementptr inbounds nuw %struct.curl_mimepart, ptr %32, i32 0, i32 2
  store i32 0, ptr %33, align 8, !tbaa !33
  %34 = load ptr, ptr %2, align 8, !tbaa !4
  %35 = getelementptr inbounds nuw %struct.curl_mimepart, ptr %34, i32 0, i32 3
  %36 = load i32, ptr %35, align 4, !tbaa !20
  %37 = and i32 %36, -5
  store i32 %37, ptr %35, align 4, !tbaa !20
  %38 = load ptr, ptr %2, align 8, !tbaa !4
  %39 = getelementptr inbounds nuw %struct.curl_mimepart, ptr %38, i32 0, i32 19
  store i64 1, ptr %39, align 8, !tbaa !34
  %40 = load ptr, ptr %2, align 8, !tbaa !4
  %41 = getelementptr inbounds nuw %struct.curl_mimepart, ptr %40, i32 0, i32 16
  %42 = getelementptr inbounds nuw %struct.mime_state, ptr %41, i32 0, i32 0
  store i32 0, ptr %42, align 8, !tbaa !35
  ret void
}

; Function Attrs: nounwind uwtable
define dso_local i32 @Curl_mime_set_subparts(ptr noundef %0, ptr noundef %1, i32 noundef %2) #0 {
  %4 = alloca i32, align 4
  %5 = alloca ptr, align 8
  %6 = alloca ptr, align 8
  %7 = alloca i32, align 4
  %8 = alloca ptr, align 8
  %9 = alloca i32, align 4
  store ptr %0, ptr %5, align 8, !tbaa !4
  store ptr %1, ptr %6, align 8, !tbaa !36
  store i32 %2, ptr %7, align 4, !tbaa !45
  call void @llvm.lifetime.start.p0(i64 8, ptr %8) #8
  %10 = load ptr, ptr %5, align 8, !tbaa !4
  %11 = icmp ne ptr %10, null
  br i1 %11, label %13, label %12

12:                                               ; preds = %3
  store i32 43, ptr %4, align 4
  store i32 1, ptr %9, align 4
  br label %87

13:                                               ; preds = %3
  %14 = load ptr, ptr %5, align 8, !tbaa !4
  %15 = getelementptr inbounds nuw %struct.curl_mimepart, ptr %14, i32 0, i32 2
  %16 = load i32, ptr %15, align 8, !tbaa !33
  %17 = icmp eq i32 %16, 4
  br i1 %17, label %18, label %25

18:                                               ; preds = %13
  %19 = load ptr, ptr %5, align 8, !tbaa !4
  %20 = getelementptr inbounds nuw %struct.curl_mimepart, ptr %19, i32 0, i32 8
  %21 = load ptr, ptr %20, align 8, !tbaa !27
  %22 = load ptr, ptr %6, align 8, !tbaa !36
  %23 = icmp eq ptr %21, %22
  br i1 %23, label %24, label %25

24:                                               ; preds = %18
  store i32 0, ptr %4, align 4
  store i32 1, ptr %9, align 4
  br label %87

25:                                               ; preds = %18, %13
  %26 = load ptr, ptr %5, align 8, !tbaa !4
  call void @cleanup_part_content(ptr noundef %26)
  %27 = load ptr, ptr %6, align 8, !tbaa !36
  %28 = icmp ne ptr %27, null
  br i1 %28, label %29, label %86

29:                                               ; preds = %25
  %30 = load ptr, ptr %6, align 8, !tbaa !36
  %31 = getelementptr inbounds nuw %struct.curl_mime, ptr %30, i32 0, i32 0
  %32 = load ptr, ptr %31, align 8, !tbaa !42
  %33 = icmp ne ptr %32, null
  br i1 %33, label %34, label %35

34:                                               ; preds = %29
  store i32 43, ptr %4, align 4
  store i32 1, ptr %9, align 4
  br label %87

35:                                               ; preds = %29
  %36 = load ptr, ptr %5, align 8, !tbaa !4
  %37 = getelementptr inbounds nuw %struct.curl_mimepart, ptr %36, i32 0, i32 0
  %38 = load ptr, ptr %37, align 8, !tbaa !56
  store ptr %38, ptr %8, align 8, !tbaa !36
  %39 = load ptr, ptr %8, align 8, !tbaa !36
  %40 = icmp ne ptr %39, null
  br i1 %40, label %41, label %68

41:                                               ; preds = %35
  br label %42

42:                                               ; preds = %56, %41
  %43 = load ptr, ptr %8, align 8, !tbaa !36
  %44 = getelementptr inbounds nuw %struct.curl_mime, ptr %43, i32 0, i32 0
  %45 = load ptr, ptr %44, align 8, !tbaa !42
  %46 = icmp ne ptr %45, null
  br i1 %46, label %47, label %54

47:                                               ; preds = %42
  %48 = load ptr, ptr %8, align 8, !tbaa !36
  %49 = getelementptr inbounds nuw %struct.curl_mime, ptr %48, i32 0, i32 0
  %50 = load ptr, ptr %49, align 8, !tbaa !42
  %51 = getelementptr inbounds nuw %struct.curl_mimepart, ptr %50, i32 0, i32 0
  %52 = load ptr, ptr %51, align 8, !tbaa !56
  %53 = icmp ne ptr %52, null
  br label %54

54:                                               ; preds = %47, %42
  %55 = phi i1 [ false, %42 ], [ %53, %47 ]
  br i1 %55, label %56, label %62

56:                                               ; preds = %54
  %57 = load ptr, ptr %8, align 8, !tbaa !36
  %58 = getelementptr inbounds nuw %struct.curl_mime, ptr %57, i32 0, i32 0
  %59 = load ptr, ptr %58, align 8, !tbaa !42
  %60 = getelementptr inbounds nuw %struct.curl_mimepart, ptr %59, i32 0, i32 0
  %61 = load ptr, ptr %60, align 8, !tbaa !56
  store ptr %61, ptr %8, align 8, !tbaa !36
  br label %42, !llvm.loop !67

62:                                               ; preds = %54
  %63 = load ptr, ptr %6, align 8, !tbaa !36
  %64 = load ptr, ptr %8, align 8, !tbaa !36
  %65 = icmp eq ptr %63, %64
  br i1 %65, label %66, label %67

66:                                               ; preds = %62
  store i32 43, ptr %4, align 4
  store i32 1, ptr %9, align 4
  br label %87

67:                                               ; preds = %62
  br label %68

68:                                               ; preds = %67, %35
  %69 = load ptr, ptr %5, align 8, !tbaa !4
  %70 = load ptr, ptr %6, align 8, !tbaa !36
  %71 = getelementptr inbounds nuw %struct.curl_mime, ptr %70, i32 0, i32 0
  store ptr %69, ptr %71, align 8, !tbaa !42
  %72 = load ptr, ptr %5, align 8, !tbaa !4
  %73 = getelementptr inbounds nuw %struct.curl_mimepart, ptr %72, i32 0, i32 6
  store ptr @mime_subparts_seek, ptr %73, align 8, !tbaa !29
  %74 = load i32, ptr %7, align 4, !tbaa !45
  %75 = icmp ne i32 %74, 0
  %76 = select i1 %75, ptr @mime_subparts_free, ptr @mime_subparts_unbind
  %77 = load ptr, ptr %5, align 8, !tbaa !4
  %78 = getelementptr inbounds nuw %struct.curl_mimepart, ptr %77, i32 0, i32 7
  store ptr %76, ptr %78, align 8, !tbaa !26
  %79 = load ptr, ptr %6, align 8, !tbaa !36
  %80 = load ptr, ptr %5, align 8, !tbaa !4
  %81 = getelementptr inbounds nuw %struct.curl_mimepart, ptr %80, i32 0, i32 8
  store ptr %79, ptr %81, align 8, !tbaa !27
  %82 = load ptr, ptr %5, align 8, !tbaa !4
  %83 = getelementptr inbounds nuw %struct.curl_mimepart, ptr %82, i32 0, i32 15
  store i64 -1, ptr %83, align 8, !tbaa !32
  %84 = load ptr, ptr %5, align 8, !tbaa !4
  %85 = getelementptr inbounds nuw %struct.curl_mimepart, ptr %84, i32 0, i32 2
  store i32 4, ptr %85, align 8, !tbaa !33
  br label %86

86:                                               ; preds = %68, %25
  store i32 0, ptr %4, align 4
  store i32 1, ptr %9, align 4
  br label %87

87:                                               ; preds = %86, %66, %34, %24, %12
  call void @llvm.lifetime.end.p0(i64 8, ptr %8) #8
  %88 = load i32, ptr %4, align 4
  ret i32 %88
}

; Function Attrs: nounwind uwtable
define dso_local i32 @curl_mime_subparts(ptr noundef %0, ptr noundef %1) #0 {
  %3 = alloca ptr, align 8
  %4 = alloca ptr, align 8
  store ptr %0, ptr %3, align 8, !tbaa !4
  store ptr %1, ptr %4, align 8, !tbaa !36
  %5 = load ptr, ptr %3, align 8, !tbaa !4
  %6 = load ptr, ptr %4, align 8, !tbaa !36
  %7 = call i32 @Curl_mime_set_subparts(ptr noundef %5, ptr noundef %6, i32 noundef 1)
  ret i32 %7
}