; Function Attrs: nounwind uwtable
define dso_local range(i32 0, 44) i32 @curl_mime_subparts(ptr noundef %0, ptr noundef %1) local_unnamed_addr #0 {
  %.not.i = icmp eq ptr %0, null
  br i1 %.not.i, label %Curl_mime_set_subparts.exit, label %3

3:                                                ; preds = %2
  %4 = getelementptr inbounds nuw i8, ptr %0, i64 16
  %5 = load i32, ptr %4, align 8, !tbaa !23
  %6 = icmp eq i32 %5, 4
  br i1 %6, label %7, label %11

7:                                                ; preds = %3
  %8 = getelementptr inbounds nuw i8, ptr %0, i64 56
  %9 = load ptr, ptr %8, align 8, !tbaa !19
  %10 = icmp eq ptr %9, %1
  br i1 %10, label %Curl_mime_set_subparts.exit, label %11

11:                                               ; preds = %7, %3
  %12 = getelementptr inbounds nuw i8, ptr %0, i64 48
  %13 = load ptr, ptr %12, align 8, !tbaa !4
  %.not.i.i = icmp eq ptr %13, null
  br i1 %.not.i.i, label %cleanup_part_content.exit.i, label %14

14:                                               ; preds = %11
  %15 = getelementptr inbounds nuw i8, ptr %0, i64 56
  %16 = load ptr, ptr %15, align 8, !tbaa !19
  tail call void %13(ptr noundef %16) #18
  br label %cleanup_part_content.exit.i

cleanup_part_content.exit.i:                      ; preds = %14, %11
  %17 = getelementptr inbounds nuw i8, ptr %0, i64 32
  %18 = getelementptr inbounds nuw i8, ptr %0, i64 56
  tail call void @llvm.memset.p0.i64(ptr noundef nonnull align 8 dereferenceable(24) %17, i8 0, i64 24, i1 false)
  store ptr %0, ptr %18, align 8, !tbaa !19
  %19 = getelementptr inbounds nuw i8, ptr %0, i64 24
  store ptr null, ptr %19, align 8, !tbaa !20
  %20 = getelementptr inbounds nuw i8, ptr %0, i64 64
  store ptr null, ptr %20, align 8, !tbaa !21
  %21 = getelementptr inbounds nuw i8, ptr %0, i64 112
  store i64 0, ptr %21, align 8, !tbaa !22
  %22 = getelementptr inbounds nuw i8, ptr %0, i64 152
  tail call void @llvm.memset.p0.i64(ptr noundef nonnull align 8 dereferenceable(24) %22, i8 0, i64 24, i1 false)
  store i32 0, ptr %4, align 8, !tbaa !23
  %23 = getelementptr inbounds nuw i8, ptr %0, i64 20
  %24 = load i32, ptr %23, align 4, !tbaa !24
  %25 = and i32 %24, -5
  store i32 %25, ptr %23, align 4, !tbaa !24
  %26 = getelementptr inbounds nuw i8, ptr %0, i64 432
  store i64 1, ptr %26, align 8, !tbaa !25
  %27 = getelementptr inbounds nuw i8, ptr %0, i64 120
  store i32 0, ptr %27, align 8, !tbaa !26
  %.not29.i = icmp eq ptr %1, null
  br i1 %.not29.i, label %Curl_mime_set_subparts.exit, label %28

28:                                               ; preds = %cleanup_part_content.exit.i
  %29 = load ptr, ptr %1, align 8, !tbaa !33
  %.not30.i = icmp eq ptr %29, null
  br i1 %.not30.i, label %30, label %Curl_mime_set_subparts.exit

30:                                               ; preds = %28
  %31 = load ptr, ptr %0, align 8, !tbaa !42
  %.not31.i = icmp eq ptr %31, null
  br i1 %.not31.i, label %36, label %.preheader.i

.preheader.i:                                     ; preds = %30, %33
  %.0.i = phi ptr [ %34, %33 ], [ %31, %30 ]
  %32 = load ptr, ptr %.0.i, align 8, !tbaa !33
  %.not32.i = icmp eq ptr %32, null
  br i1 %.not32.i, label %.critedge.i, label %33

33:                                               ; preds = %.preheader.i
  %34 = load ptr, ptr %32, align 8, !tbaa !42
  %.not33.i = icmp eq ptr %34, null
  br i1 %.not33.i, label %.critedge.i, label %.preheader.i, !llvm.loop !43

.critedge.i:                                      ; preds = %33, %.preheader.i
  %35 = icmp eq ptr %1, %.0.i
  br i1 %35, label %Curl_mime_set_subparts.exit, label %36

36:                                               ; preds = %.critedge.i, %30
  store ptr %0, ptr %1, align 8, !tbaa !33
  %37 = getelementptr inbounds nuw i8, ptr %0, i64 40
  store ptr @mime_subparts_seek, ptr %37, align 8, !tbaa !40
  store ptr @mime_subparts_free, ptr %12, align 8, !tbaa !4
  store ptr %1, ptr %18, align 8, !tbaa !19
  store i64 -1, ptr %21, align 8, !tbaa !22
  store i32 4, ptr %4, align 8, !tbaa !23
  br label %Curl_mime_set_subparts.exit

Curl_mime_set_subparts.exit:                      ; preds = %2, %7, %cleanup_part_content.exit.i, %28, %.critedge.i, %36
  %.023.i = phi i32 [ 43, %2 ], [ 0, %7 ], [ 43, %28 ], [ 43, %.critedge.i ], [ 0, %36 ], [ 0, %cleanup_part_content.exit.i ]
  ret i32 %.023.i
}